target datalayout = "e-m:e-p270:32:32-p271:32:32-p272:64:64-i64:64-i128:128-f80:128-n8:16:32:64-S128"
target triple = "x86_64-pc-linux-gnu"

%struct._k12_hdls_t = type { ptr, ptr, ptr }

@data_handle = internal global ptr null, align 8
@.str.42 = private unnamed_addr constant [2 x i8] c":\00", align 1
@.str.44 = private unnamed_addr constant [35 x i8] c"Could not find dissector for: '%s'\00", align 1

; Function Attrs: nounwind uwtable
define internal zeroext i1 @k12_update_cb(ptr noundef %0, ptr noundef %1) #0 {
  %3 = alloca i1, align 1
  %4 = alloca ptr, align 8
  %5 = alloca ptr, align 8
  %6 = alloca ptr, align 8
  %7 = alloca ptr, align 8
  %8 = alloca i32, align 4
  %9 = alloca i32, align 4
  store ptr %0, ptr %4, align 8
  store ptr %1, ptr %5, align 8
  %10 = load ptr, ptr %4, align 8
  store ptr %10, ptr %6, align 8
  %11 = load ptr, ptr %6, align 8
  %12 = getelementptr inbounds %struct._k12_hdls_t, ptr %11, i32 0, i32 1
  %13 = load ptr, ptr %12, align 8
  %14 = call ptr @g_strsplit(ptr noundef %13, ptr noundef @.str.42, i32 noundef 0)
  store ptr %14, ptr %7, align 8
  store i32 0, ptr %8, align 4
  br label %15

15:                                               ; preds = %30, %2
  %16 = load ptr, ptr %7, align 8
  %17 = load i32, ptr %8, align 4
  %18 = zext i32 %17 to i64
  %19 = getelementptr ptr, ptr %16, i64 %18
  %20 = load ptr, ptr %19, align 8
  %21 = icmp ne ptr %20, null
  br i1 %21, label %22, label %33

22:                                               ; preds = %15
  %23 = load ptr, ptr %7, align 8
  %24 = load i32, ptr %8, align 4
  %25 = zext i32 %24 to i64
  %26 = getelementptr ptr, ptr %23, i64 %25
  %27 = load ptr, ptr %26, align 8
  %28 = call ptr @g_strchug(ptr noundef %27)
  %29 = call ptr @g_strchomp(ptr noundef %28)
  br label %30

30:                                               ; preds = %22
  %31 = load i32, ptr %8, align 4
  %32 = add i32 %31, 1
  store i32 %32, ptr %8, align 4
  br label %15, !llvm.loop !10

33:                                               ; preds = %15
  %34 = load ptr, ptr %6, align 8
  %35 = getelementptr inbounds %struct._k12_hdls_t, ptr %34, i32 0, i32 2
  %36 = load ptr, ptr %35, align 8
  call void @g_free(ptr noundef %36)
  %37 = load i32, ptr %8, align 4
  %38 = add i32 %37, 1
  %39 = zext i32 %38 to i64
  %40 = call noalias ptr @g_malloc0_n(i64 noundef %39, i64 noundef 8) #7
  %41 = load ptr, ptr %6, align 8
  %42 = getelementptr inbounds %struct._k12_hdls_t, ptr %41, i32 0, i32 2
  store ptr %40, ptr %42, align 8
  store i32 0, ptr %9, align 4
  br label %43

43:                                               ; preds = %85, %33
  %44 = load i32, ptr %9, align 4
  %45 = load i32, ptr %8, align 4
  %46 = icmp ult i32 %44, %45
  br i1 %46, label %47, label %88

47:                                               ; preds = %43
  %48 = load ptr, ptr %7, align 8
  %49 = load i32, ptr %9, align 4
  %50 = zext i32 %49 to i64
  %51 = getelementptr ptr, ptr %48, i64 %50
  %52 = load ptr, ptr %51, align 8
  %53 = call ptr @find_dissector(ptr noundef %52)
  %54 = load ptr, ptr %6, align 8
  %55 = getelementptr inbounds %struct._k12_hdls_t, ptr %54, i32 0, i32 2
  %56 = load ptr, ptr %55, align 8
  %57 = load i32, ptr %9, align 4
  %58 = zext i32 %57 to i64
  %59 = getelementptr ptr, ptr %56, i64 %58
  store ptr %53, ptr %59, align 8
  %60 = icmp ne ptr %53, null
  br i1 %60, label %84, label %61

61:                                               ; preds = %47
  %62 = load ptr, ptr @data_handle, align 8
  %63 = load ptr, ptr %6, align 8
  %64 = getelementptr inbounds %struct._k12_hdls_t, ptr %63, i32 0, i32 2
  %65 = load ptr, ptr %64, align 8
  %66 = load i32, ptr %9, align 4
  %67 = zext i32 %66 to i64
  %68 = getelementptr ptr, ptr %65, i64 %67
  store ptr %62, ptr %68, align 8
  %69 = load ptr, ptr %6, align 8
  %70 = getelementptr inbounds %struct._k12_hdls_t, ptr %69, i32 0, i32 2
  %71 = load ptr, ptr %70, align 8
  %72 = load i32, ptr %9, align 4
  %73 = add i32 %72, 1
  %74 = zext i32 %73 to i64
  %75 = getelementptr ptr, ptr %71, i64 %74
  store ptr null, ptr %75, align 8
  %76 = load ptr, ptr %7, align 8
  %77 = load i32, ptr %9, align 4
  %78 = zext i32 %77 to i64
  %79 = getelementptr ptr, ptr %76, i64 %78
  %80 = load ptr, ptr %79, align 8
  %81 = call noalias ptr (ptr, ptr, ...) @wmem_strdup_printf(ptr noundef null, ptr noundef @.str.44, ptr noundef %80)
  %82 = load ptr, ptr %5, align 8
  store ptr %81, ptr %82, align 8
  %83 = load ptr, ptr %7, align 8
  call void @g_strfreev(ptr noundef %83)
  store i1 false, ptr %3, align 1
  br label %97

84:                                               ; preds = %47
  br label %85

85:                                               ; preds = %84
  %86 = load i32, ptr %9, align 4
  %87 = add i32 %86, 1
  store i32 %87, ptr %9, align 4
  br label %43, !llvm.loop !11

88:                                               ; preds = %43
  %89 = load ptr, ptr %6, align 8
  %90 = getelementptr inbounds %struct._k12_hdls_t, ptr %89, i32 0, i32 2
  %91 = load ptr, ptr %90, align 8
  %92 = load i32, ptr %9, align 4
  %93 = zext i32 %92 to i64
  %94 = getelementptr ptr, ptr %91, i64 %93
  store ptr null, ptr %94, align 8
  %95 = load ptr, ptr %7, align 8
  call void @g_strfreev(ptr noundef %95)
  %96 = load ptr, ptr %5, align 8
  store ptr null, ptr %96, align 8
  store i1 true, ptr %3, align 1
  br label %97

97:                                               ; preds = %88, %61
  %98 = load i1, ptr %3, align 1
  ret i1 %98
}