; Function Attrs: nounwind uwtable
define internal noundef zeroext i1 @k12_update_cb(ptr noundef captures(none) %0, ptr noundef writeonly captures(none) %1) #0 {
  %3 = getelementptr inbounds nuw i8, ptr %0, i64 8
  %4 = load ptr, ptr %3, align 8
  %5 = tail call ptr @g_strsplit(ptr noundef %4, ptr noundef nonnull @.str.42, i32 noundef 0) #5
  %6 = load ptr, ptr %5, align 8
  %.not37 = icmp eq ptr %6, null
  br i1 %.not37, label %._crit_edge, label %.lr.ph

.lr.ph:                                           ; preds = %2, %.lr.ph
  %7 = phi ptr [ %13, %.lr.ph ], [ %6, %2 ]
  %.02938 = phi i32 [ %10, %.lr.ph ], [ 0, %2 ]
  %8 = tail call ptr @g_strchug(ptr noundef nonnull %7) #5
  %9 = tail call ptr @g_strchomp(ptr noundef %8) #5
  %10 = add i32 %.02938, 1
  %11 = zext i32 %10 to i64
  %12 = getelementptr ptr, ptr %5, i64 %11
  %13 = load ptr, ptr %12, align 8
  %.not = icmp eq ptr %13, null
  br i1 %.not, label %._crit_edge, label %.lr.ph, !llvm.loop !11

._crit_edge:                                      ; preds = %.lr.ph, %2
  %.029.lcssa = phi i32 [ 0, %2 ], [ %10, %.lr.ph ]
  %14 = getelementptr inbounds nuw i8, ptr %0, i64 16
  %15 = load ptr, ptr %14, align 8
  tail call void @g_free(ptr noundef %15) #5
  %16 = add i32 %.029.lcssa, 1
  %17 = zext i32 %16 to i64
  %18 = tail call noalias ptr @g_malloc0_n(i64 noundef %17, i64 noundef 8) #8
  store ptr %18, ptr %14, align 8
  %19 = icmp eq i32 %.029.lcssa, 0
  br i1 %19, label %._crit_edge43, label %.lr.ph42.preheader

.lr.ph42.preheader:                               ; preds = %._crit_edge
  %wide.trip.count = zext i32 %.029.lcssa to i64
  br label %.lr.ph42

.lr.ph42:                                         ; preds = %.lr.ph42.preheader, %36
  %indvars.iv = phi i64 [ 0, %.lr.ph42.preheader ], [ %indvars.iv.next, %36 ]
  %20 = getelementptr ptr, ptr %5, i64 %indvars.iv
  %21 = load ptr, ptr %20, align 8
  %22 = tail call ptr @find_dissector(ptr noundef %21) #5
  %23 = load ptr, ptr %14, align 8
  %24 = getelementptr ptr, ptr %23, i64 %indvars.iv
  store ptr %22, ptr %24, align 8
  %.not32 = icmp eq ptr %22, null
  br i1 %.not32, label %25, label %36

25:                                               ; preds = %.lr.ph42
  %26 = getelementptr ptr, ptr %5, i64 %indvars.iv
  %27 = load ptr, ptr @data_handle, align 8
  %28 = load ptr, ptr %14, align 8
  %29 = getelementptr ptr, ptr %28, i64 %indvars.iv
  store ptr %27, ptr %29, align 8
  %30 = load ptr, ptr %14, align 8
  %31 = add nuw i64 %indvars.iv, 1
  %32 = and i64 %31, 4294967295
  %33 = getelementptr ptr, ptr %30, i64 %32
  store ptr null, ptr %33, align 8
  %34 = load ptr, ptr %26, align 8
  %35 = tail call noalias ptr (ptr, ptr, ...) @wmem_strdup_printf(ptr noundef null, ptr noundef nonnull @.str.44, ptr noundef %34) #5
  store ptr %35, ptr %1, align 8
  tail call void @g_strfreev(ptr noundef nonnull %5) #5
  br label %40

36:                                               ; preds = %.lr.ph42
  %indvars.iv.next = add nuw nsw i64 %indvars.iv, 1
  %exitcond.not = icmp eq i64 %indvars.iv.next, %wide.trip.count
  br i1 %exitcond.not, label %._crit_edge43.loopexit, label %.lr.ph42, !llvm.loop !12

._crit_edge43.loopexit:                           ; preds = %36
  %.pre = load ptr, ptr %14, align 8
  %37 = zext i32 %.029.lcssa to i64
  br label %._crit_edge43

._crit_edge43:                                    ; preds = %._crit_edge, %._crit_edge43.loopexit
  %38 = phi ptr [ %.pre, %._crit_edge43.loopexit ], [ %18, %._crit_edge ]
  %.0.lcssa = phi i64 [ %37, %._crit_edge43.loopexit ], [ 0, %._crit_edge ]
  %39 = getelementptr ptr, ptr %38, i64 %.0.lcssa
  store ptr null, ptr %39, align 8
  tail call void @g_strfreev(ptr noundef nonnull %5) #5
  store ptr null, ptr %1, align 8
  br label %40

40:                                               ; preds = %._crit_edge43, %25
  %41 = phi i1 [ true, %._crit_edge43 ], [ false, %25 ]
  ret i1 %41
}